target datalayout = "e-m:e-p270:32:32-p271:32:32-p272:64:64-i64:64-i128:128-f80:128-n8:16:32:64-S128"
target triple = "x86_64-pc-linux-gnu"

%struct.prov_aes_gcm_siv_ctx_st = type { ptr, ptr, ptr, ptr, ptr, i64, i64, [32 x i8], [32 x i8], [16 x i8], [16 x i8], [16 x i8], [12 x i8], [16 x %struct.u128], i8 }
%struct.u128 = type { i64, i64 }
%struct.prov_cipher_hw_aes_gcm_siv_st = type { ptr, ptr, ptr, ptr }

@.str = private unnamed_addr constant [66 x i8] c"../openssl/providers/implementations/ciphers/cipher_aes_gcm_siv.c\00", align 1

; Function Attrs: nounwind uwtable
define internal void @ossl_aes_gcm_siv_freectx(ptr noundef %0) #0 {
  %2 = alloca ptr, align 8
  %3 = alloca ptr, align 8
  %4 = alloca i32, align 4
  store ptr %0, ptr %2, align 8, !tbaa !3
  call void @llvm.lifetime.start.p0(i64 8, ptr %3) #5
  %5 = load ptr, ptr %2, align 8, !tbaa !3
  store ptr %5, ptr %3, align 8, !tbaa !7
  %6 = load ptr, ptr %3, align 8, !tbaa !7
  %7 = icmp eq ptr %6, null
  br i1 %7, label %8, label %9

8:                                                ; preds = %1
  store i32 1, ptr %4, align 4
  br label %23

9:                                                ; preds = %1
  %10 = load ptr, ptr %3, align 8, !tbaa !7
  %11 = getelementptr inbounds nuw %struct.prov_aes_gcm_siv_ctx_st, ptr %10, i32 0, i32 2
  %12 = load ptr, ptr %11, align 8, !tbaa !9
  %13 = load ptr, ptr %3, align 8, !tbaa !7
  %14 = getelementptr inbounds nuw %struct.prov_aes_gcm_siv_ctx_st, ptr %13, i32 0, i32 5
  %15 = load i64, ptr %14, align 8, !tbaa !18
  call void @CRYPTO_clear_free(ptr noundef %12, i64 noundef %15, ptr noundef @.str, i32 noundef 51)
  %16 = load ptr, ptr %3, align 8, !tbaa !7
  %17 = getelementptr inbounds nuw %struct.prov_aes_gcm_siv_ctx_st, ptr %16, i32 0, i32 1
  %18 = load ptr, ptr %17, align 8, !tbaa !19
  %19 = getelementptr inbounds nuw %struct.prov_cipher_hw_aes_gcm_siv_st, ptr %18, i32 0, i32 3
  %20 = load ptr, ptr %19, align 8, !tbaa !20
  %21 = load ptr, ptr %3, align 8, !tbaa !7
  call void %20(ptr noundef %21)
  %22 = load ptr, ptr %3, align 8, !tbaa !7
  call void @CRYPTO_clear_free(ptr noundef %22, i64 noundef 448, ptr noundef @.str, i32 noundef 53)
  store i32 0, ptr %4, align 4
  br label %23

23:                                               ; preds = %9, %8
  call void @llvm.lifetime.end.p0(i64 8, ptr %3) #5
  %24 = load i32, ptr %4, align 4
  switch i32 %24, label %26 [
    i32 0, label %25
    i32 1, label %25
  ]

25:                                               ; preds = %23, %23
  ret void

26:                                               ; preds = %23
  unreachable
}