; Function Attrs: nounwind uwtable
define internal void @ossl_aes_gcm_siv_freectx(ptr noundef %0) #0 {
  %2 = icmp eq ptr %0, null
  br i1 %2, label %12, label %3

3:                                                ; preds = %1
  %4 = getelementptr inbounds nuw i8, ptr %0, i64 16
  %5 = load ptr, ptr %4, align 8, !tbaa !18
  %6 = getelementptr inbounds nuw i8, ptr %0, i64 40
  %7 = load i64, ptr %6, align 8, !tbaa !19
  tail call void @CRYPTO_clear_free(ptr noundef %5, i64 noundef %7, ptr noundef nonnull @.str, i32 noundef 51) #5
  %8 = getelementptr inbounds nuw i8, ptr %0, i64 8
  %9 = load ptr, ptr %8, align 8, !tbaa !15
  %10 = getelementptr inbounds nuw i8, ptr %9, i64 24
  %11 = load ptr, ptr %10, align 8, !tbaa !20
  tail call void %11(ptr noundef nonnull %0) #5
  tail call void @CRYPTO_clear_free(ptr noundef nonnull %0, i64 noundef 448, ptr noundef nonnull @.str, i32 noundef 53) #5
  br label %12

12:                                               ; preds = %1, %3
  ret void
}